EXPORTS
    _ZN12NcValues_intC1ERKS_
    _ZN12NcValues_intC1El
    _ZN12NcValues_intC1ElPKi
    _ZN12NcValues_intC1Ev
    _ZN12NcValues_intC2ERKS_
    _ZN12NcValues_intC2El
    _ZN12NcValues_intC2ElPKi
    _ZN12NcValues_intC2Ev
    _ZN12NcValues_intD0Ev
    _ZN12NcValues_intD1Ev
    _ZN12NcValues_intD2Ev
    _ZN12NcValues_intaSERKS_
    _ZN13NcValues_charC1ERKS_
    _ZN13NcValues_charC1El
    _ZN13NcValues_charC1ElPKc
    _ZN13NcValues_charC1Ev
    _ZN13NcValues_charC2ERKS_
    _ZN13NcValues_charC2El
    _ZN13NcValues_charC2ElPKc
    _ZN13NcValues_charC2Ev
    _ZN13NcValues_charD0Ev
    _ZN13NcValues_charD1Ev
    _ZN13NcValues_charD2Ev
    _ZN13NcValues_charaSERKS_
    _ZN13NcValues_longC1ERKS_
    _ZN13NcValues_longC1El
    _ZN13NcValues_longC1ElPKl
    _ZN13NcValues_longC1Ev
    _ZN13NcValues_longC2ERKS_
    _ZN13NcValues_longC2El
    _ZN13NcValues_longC2ElPKl
    _ZN13NcValues_longC2Ev
    _ZN13NcValues_longD0Ev
    _ZN13NcValues_longD1Ev
    _ZN13NcValues_longD2Ev
    _ZN13NcValues_longaSERKS_
    _ZN14NcValues_floatC1ERKS_
    _ZN14NcValues_floatC1El
    _ZN14NcValues_floatC1ElPKf
    _ZN14NcValues_floatC1Ev
    _ZN14NcValues_floatC2ERKS_
    _ZN14NcValues_floatC2El
    _ZN14NcValues_floatC2ElPKf
    _ZN14NcValues_floatC2Ev
    _ZN14NcValues_floatD0Ev
    _ZN14NcValues_floatD1Ev
    _ZN14NcValues_floatD2Ev
    _ZN14NcValues_floataSERKS_
    _ZN14NcValues_shortC1ERKS_
    _ZN14NcValues_shortC1El
    _ZN14NcValues_shortC1ElPKs
    _ZN14NcValues_shortC1Ev
    _ZN14NcValues_shortC2ERKS_
    _ZN14NcValues_shortC2El
    _ZN14NcValues_shortC2ElPKs
    _ZN14NcValues_shortC2Ev
    _ZN14NcValues_shortD0Ev
    _ZN14NcValues_shortD1Ev
    _ZN14NcValues_shortD2Ev
    _ZN14NcValues_shortaSERKS_
    _ZN15NcValues_doubleC1ERKS_
    _ZN15NcValues_doubleC1El
    _ZN15NcValues_doubleC1ElPKd
    _ZN15NcValues_doubleC1Ev
    _ZN15NcValues_doubleC2ERKS_
    _ZN15NcValues_doubleC2El
    _ZN15NcValues_doubleC2ElPKd
    _ZN15NcValues_doubleC2Ev
    _ZN15NcValues_doubleD0Ev
    _ZN15NcValues_doubleD1Ev
    _ZN15NcValues_doubleD2Ev
    _ZN15NcValues_doubleaSERKS_
    _ZN15NcValues_ncbyteC1ERKS_
    _ZN15NcValues_ncbyteC1El
    _ZN15NcValues_ncbyteC1ElPKa
    _ZN15NcValues_ncbyteC1Ev
    _ZN15NcValues_ncbyteC2ERKS_
    _ZN15NcValues_ncbyteC2El
    _ZN15NcValues_ncbyteC2ElPKa
    _ZN15NcValues_ncbyteC2Ev
    _ZN15NcValues_ncbyteD0Ev
    _ZN15NcValues_ncbyteD1Ev
    _ZN15NcValues_ncbyteD2Ev
    _ZN15NcValues_ncbyteaSERKS_
    _ZN15NcValues_nclongC1ERKS_
    _ZN15NcValues_nclongC1El
    _ZN15NcValues_nclongC1ElPKi
    _ZN15NcValues_nclongC1Ev
    _ZN15NcValues_nclongC2ERKS_
    _ZN15NcValues_nclongC2El
    _ZN15NcValues_nclongC2ElPKi
    _ZN15NcValues_nclongC2Ev
    _ZN15NcValues_nclongD0Ev
    _ZN15NcValues_nclongD1Ev
    _ZN15NcValues_nclongD2Ev
    _ZN15NcValues_nclongaSERKS_
    _ZN16NcTypedComponentC1EP6NcFile
    _ZN16NcTypedComponentC2EP6NcFile
    _ZN16NcTypedComponentD0Ev
    _ZN16NcTypedComponentD1Ev
    _ZN5NcAtt6removeEv
    _ZN5NcAtt6renameEPKc
    _ZN5NcAttC1EP6NcFilePK5NcVarPKc
    _ZN5NcAttC1EP6NcFilePKc
    _ZN5NcAttC2EP6NcFilePK5NcVarPKc
    _ZN5NcAttC2EP6NcFilePKc
    _ZN5NcAttD0Ev
    _ZN5NcAttD1Ev
    _ZN5NcAttD2Ev
    _ZN5NcDim4syncEv
    _ZN5NcDim6renameEPKc
    _ZN5NcDimC1EP6NcFilePKcl
    _ZN5NcDimC1EP6NcFilei
    _ZN5NcDimC2EP6NcFilePKcl
    _ZN5NcDimC2EP6NcFilei
    _ZN5NcDimD0Ev
    _ZN5NcDimD1Ev
    _ZN5NcDimD2Ev
    _ZN5NcVar12dim_to_indexEP5NcDim
    _ZN5NcVar3putEPKaPKl
    _ZN5NcVar3putEPKalllll
    _ZN5NcVar3putEPKcPKl
    _ZN5NcVar3putEPKclllll
    _ZN5NcVar3putEPKdPKl
    _ZN5NcVar3putEPKdlllll
    _ZN5NcVar3putEPKfPKl
    _ZN5NcVar3putEPKflllll
    _ZN5NcVar3putEPKiPKl
    _ZN5NcVar3putEPKilllll
    _ZN5NcVar3putEPKlS1_
    _ZN5NcVar3putEPKllllll
    _ZN5NcVar3putEPKsPKl
    _ZN5NcVar3putEPKslllll
    _ZN5NcVar4syncEv
    _ZN5NcVar6renameEPKc
    _ZN5NcVar7add_attEPKcS1_
    _ZN5NcVar7add_attEPKca
    _ZN5NcVar7add_attEPKcc
    _ZN5NcVar7add_attEPKcd
    _ZN5NcVar7add_attEPKcf
    _ZN5NcVar7add_attEPKci
    _ZN5NcVar7add_attEPKciPKa
    _ZN5NcVar7add_attEPKciPKd
    _ZN5NcVar7add_attEPKciPKf
    _ZN5NcVar7add_attEPKciPKi
    _ZN5NcVar7add_attEPKciPKl
    _ZN5NcVar7add_attEPKciPKs
    _ZN5NcVar7add_attEPKciS1_
    _ZN5NcVar7add_attEPKcl
    _ZN5NcVar7add_attEPKcs
    _ZN5NcVar7get_recEP5NcDiml
    _ZN5NcVar7get_recEl
    _ZN5NcVar7get_recEv
    _ZN5NcVar7put_recEP5NcDimPKa
    _ZN5NcVar7put_recEP5NcDimPKal
    _ZN5NcVar7put_recEP5NcDimPKc
    _ZN5NcVar7put_recEP5NcDimPKcl
    _ZN5NcVar7put_recEP5NcDimPKd
    _ZN5NcVar7put_recEP5NcDimPKdl
    _ZN5NcVar7put_recEP5NcDimPKf
    _ZN5NcVar7put_recEP5NcDimPKfl
    _ZN5NcVar7put_recEP5NcDimPKi
    _ZN5NcVar7put_recEP5NcDimPKil
    _ZN5NcVar7put_recEP5NcDimPKl
    _ZN5NcVar7put_recEP5NcDimPKll
    _ZN5NcVar7put_recEP5NcDimPKs
    _ZN5NcVar7put_recEP5NcDimPKsl
    _ZN5NcVar7put_recEPKa
    _ZN5NcVar7put_recEPKal
    _ZN5NcVar7put_recEPKc
    _ZN5NcVar7put_recEPKcl
    _ZN5NcVar7put_recEPKd
    _ZN5NcVar7put_recEPKdl
    _ZN5NcVar7put_recEPKf
    _ZN5NcVar7put_recEPKfl
    _ZN5NcVar7put_recEPKi
    _ZN5NcVar7put_recEPKil
    _ZN5NcVar7put_recEPKl
    _ZN5NcVar7put_recEPKll
    _ZN5NcVar7put_recEPKs
    _ZN5NcVar7put_recEPKsl
    _ZN5NcVar7set_curEPl
    _ZN5NcVar7set_curElllll
    _ZN5NcVar7set_recEP5NcDiml
    _ZN5NcVar7set_recEl
    _ZN5NcVar8init_curEv
    _ZN5NcVar8rec_sizeEP5NcDim
    _ZN5NcVar8rec_sizeEv
    _ZN5NcVar9get_indexEP5NcDimPKa
    _ZN5NcVar9get_indexEP5NcDimPKc
    _ZN5NcVar9get_indexEP5NcDimPKd
    _ZN5NcVar9get_indexEP5NcDimPKf
    _ZN5NcVar9get_indexEP5NcDimPKi
    _ZN5NcVar9get_indexEP5NcDimPKl
    _ZN5NcVar9get_indexEP5NcDimPKs
    _ZN5NcVar9get_indexEPKa
    _ZN5NcVar9get_indexEPKc
    _ZN5NcVar9get_indexEPKd
    _ZN5NcVar9get_indexEPKf
    _ZN5NcVar9get_indexEPKi
    _ZN5NcVar9get_indexEPKl
    _ZN5NcVar9get_indexEPKs
    _ZN5NcVarC1EP6NcFilei
    _ZN5NcVarC2EP6NcFilei
    _ZN5NcVarD0Ev
    _ZN5NcVarD1Ev
    _ZN5NcVarD2Ev
    _ZN6NcFile11define_modeEv
    _ZN6NcFile4syncEv
    _ZN6NcFile5abortEv
    _ZN6NcFile5closeEv
    _ZN6NcFile7add_attEPKcS1_
    _ZN6NcFile7add_attEPKca
    _ZN6NcFile7add_attEPKcc
    _ZN6NcFile7add_attEPKcd
    _ZN6NcFile7add_attEPKcf
    _ZN6NcFile7add_attEPKci
    _ZN6NcFile7add_attEPKciPKa
    _ZN6NcFile7add_attEPKciPKd
    _ZN6NcFile7add_attEPKciPKf
    _ZN6NcFile7add_attEPKciPKi
    _ZN6NcFile7add_attEPKciPKl
    _ZN6NcFile7add_attEPKciPKs
    _ZN6NcFile7add_attEPKciS1_
    _ZN6NcFile7add_attEPKcl
    _ZN6NcFile7add_attEPKcs
    _ZN6NcFile7add_dimEPKc
    _ZN6NcFile7add_dimEPKcl
    _ZN6NcFile7add_varEPKc6NcTypePK5NcDimS5_S5_S5_S5_
    _ZN6NcFile7add_varEPKc6NcTypeiPPK5NcDim
    _ZN6NcFile8set_fillENS_8FillModeE
    _ZN6NcFile9data_modeEv
    _ZN6NcFileC1EPKcNS_8FileModeEPyyNS_10FileFormatE
    _ZN6NcFileC2EPKcNS_8FileModeEPyyNS_10FileFormatE
    _ZN6NcFileD0Ev
    _ZN6NcFileD1Ev
    _ZN6NcFileD2Ev
    _ZN7NcError5ncerrE
    _ZN7NcError6ncoptsE
    _ZN7NcError7get_errEv
    _ZN7NcError7set_errEi
    _ZN7NcErrorC1ENS_8BehaviorE
    _ZN7NcErrorC2ENS_8BehaviorE
    _ZN7NcErrorD0Ev
    _ZN7NcErrorD1Ev
    _ZN7NcErrorD2Ev
    _ZN8NcValues3numEv
    _ZN8NcValuesC1E6NcTypel
    _ZN8NcValuesC1Ev
    _ZN8NcValuesC2E6NcTypel
    _ZN8NcValuesC2Ev
    _ZN8NcValuesD0Ev
    _ZN8NcValuesD1Ev
    _ZN8NcValuesD2Ev
    _ZNK12NcValues_int13bytes_for_oneEv
    _ZNK12NcValues_int4baseEv
    _ZNK12NcValues_int5printERSo
    _ZNK12NcValues_int6as_intEl
    _ZNK12NcValues_int7as_charEl
    _ZNK12NcValues_int7as_longEl
    _ZNK12NcValues_int7invalidEv
    _ZNK12NcValues_int8as_floatEl
    _ZNK12NcValues_int8as_shortEl
    _ZNK12NcValues_int9as_doubleEl
    _ZNK12NcValues_int9as_ncbyteEl
    _ZNK12NcValues_int9as_nclongEl
    _ZNK12NcValues_int9as_stringEl
    _ZNK13NcValues_char13bytes_for_oneEv
    _ZNK13NcValues_char4baseEv
    _ZNK13NcValues_char5printERSo
    _ZNK13NcValues_char6as_intEl
    _ZNK13NcValues_char7as_charEl
    _ZNK13NcValues_char7as_longEl
    _ZNK13NcValues_char7invalidEv
    _ZNK13NcValues_char8as_floatEl
    _ZNK13NcValues_char8as_shortEl
    _ZNK13NcValues_char9as_doubleEl
    _ZNK13NcValues_char9as_ncbyteEl
    _ZNK13NcValues_char9as_nclongEl
    _ZNK13NcValues_char9as_stringEl
    _ZNK13NcValues_long13bytes_for_oneEv
    _ZNK13NcValues_long4baseEv
    _ZNK13NcValues_long5printERSo
    _ZNK13NcValues_long6as_intEl
    _ZNK13NcValues_long7as_charEl
    _ZNK13NcValues_long7as_longEl
    _ZNK13NcValues_long7invalidEv
    _ZNK13NcValues_long8as_floatEl
    _ZNK13NcValues_long8as_shortEl
    _ZNK13NcValues_long9as_doubleEl
    _ZNK13NcValues_long9as_ncbyteEl
    _ZNK13NcValues_long9as_nclongEl
    _ZNK13NcValues_long9as_stringEl
    _ZNK14NcValues_float13bytes_for_oneEv
    _ZNK14NcValues_float4baseEv
    _ZNK14NcValues_float5printERSo
    _ZNK14NcValues_float6as_intEl
    _ZNK14NcValues_float7as_charEl
    _ZNK14NcValues_float7as_longEl
    _ZNK14NcValues_float7invalidEv
    _ZNK14NcValues_float8as_floatEl
    _ZNK14NcValues_float8as_shortEl
    _ZNK14NcValues_float9as_doubleEl
    _ZNK14NcValues_float9as_ncbyteEl
    _ZNK14NcValues_float9as_nclongEl
    _ZNK14NcValues_float9as_stringEl
    _ZNK14NcValues_short13bytes_for_oneEv
    _ZNK14NcValues_short4baseEv
    _ZNK14NcValues_short5printERSo
    _ZNK14NcValues_short6as_intEl
    _ZNK14NcValues_short7as_charEl
    _ZNK14NcValues_short7as_longEl
    _ZNK14NcValues_short7invalidEv
    _ZNK14NcValues_short8as_floatEl
    _ZNK14NcValues_short8as_shortEl
    _ZNK14NcValues_short9as_doubleEl
    _ZNK14NcValues_short9as_ncbyteEl
    _ZNK14NcValues_short9as_nclongEl
    _ZNK14NcValues_short9as_stringEl
    _ZNK15NcValues_double13bytes_for_oneEv
    _ZNK15NcValues_double4baseEv
    _ZNK15NcValues_double5printERSo
    _ZNK15NcValues_double6as_intEl
    _ZNK15NcValues_double7as_charEl
    _ZNK15NcValues_double7as_longEl
    _ZNK15NcValues_double7invalidEv
    _ZNK15NcValues_double8as_floatEl
    _ZNK15NcValues_double8as_shortEl
    _ZNK15NcValues_double9as_doubleEl
    _ZNK15NcValues_double9as_ncbyteEl
    _ZNK15NcValues_double9as_nclongEl
    _ZNK15NcValues_double9as_stringEl
    _ZNK15NcValues_ncbyte13bytes_for_oneEv
    _ZNK15NcValues_ncbyte4baseEv
    _ZNK15NcValues_ncbyte5printERSo
    _ZNK15NcValues_ncbyte6as_intEl
    _ZNK15NcValues_ncbyte7as_charEl
    _ZNK15NcValues_ncbyte7as_longEl
    _ZNK15NcValues_ncbyte7invalidEv
    _ZNK15NcValues_ncbyte8as_floatEl
    _ZNK15NcValues_ncbyte8as_shortEl
    _ZNK15NcValues_ncbyte9as_doubleEl
    _ZNK15NcValues_ncbyte9as_ncbyteEl
    _ZNK15NcValues_ncbyte9as_nclongEl
    _ZNK15NcValues_ncbyte9as_stringEl
    _ZNK15NcValues_nclong13bytes_for_oneEv
    _ZNK15NcValues_nclong4baseEv
    _ZNK15NcValues_nclong5printERSo
    _ZNK15NcValues_nclong6as_intEl
    _ZNK15NcValues_nclong7as_charEl
    _ZNK15NcValues_nclong7as_longEl
    _ZNK15NcValues_nclong7invalidEv
    _ZNK15NcValues_nclong8as_floatEl
    _ZNK15NcValues_nclong8as_shortEl
    _ZNK15NcValues_nclong9as_doubleEl
    _ZNK15NcValues_nclong9as_ncbyteEl
    _ZNK15NcValues_nclong9as_nclongEl
    _ZNK15NcValues_nclong9as_stringEl
    _ZNK16NcTypedComponent6as_intEl
    _ZNK16NcTypedComponent7as_charEl
    _ZNK16NcTypedComponent7as_longEl
    _ZNK16NcTypedComponent8as_floatEl
    _ZNK16NcTypedComponent8as_shortEl
    _ZNK16NcTypedComponent9as_doubleEl
    _ZNK16NcTypedComponent9as_ncbyteEl
    _ZNK16NcTypedComponent9as_nclongEl
    _ZNK16NcTypedComponent9as_stringEl
    _ZNK16NcTypedComponent9get_spaceEl
    _ZNK5NcAtt4nameEv
    _ZNK5NcAtt4typeEv
    _ZNK5NcAtt6valuesEv
    _ZNK5NcAtt8is_validEv
    _ZNK5NcAtt8num_valsEv
    _ZNK5NcDim12is_unlimitedEv
    _ZNK5NcDim2idEv
    _ZNK5NcDim4nameEv
    _ZNK5NcDim4sizeEv
    _ZNK5NcDim8is_validEv
    _ZNK5NcVar2idEv
    _ZNK5NcVar3getEPaPKl
    _ZNK5NcVar3getEPalllll
    _ZNK5NcVar3getEPcPKl
    _ZNK5NcVar3getEPclllll
    _ZNK5NcVar3getEPdPKl
    _ZNK5NcVar3getEPdlllll
    _ZNK5NcVar3getEPfPKl
    _ZNK5NcVar3getEPflllll
    _ZNK5NcVar3getEPiPKl
    _ZNK5NcVar3getEPilllll
    _ZNK5NcVar3getEPlPKl
    _ZNK5NcVar3getEPllllll
    _ZNK5NcVar3getEPsPKl
    _ZNK5NcVar3getEPslllll
    _ZNK5NcVar4nameEv
    _ZNK5NcVar4typeEv
    _ZNK5NcVar5edgesEv
    _ZNK5NcVar6attnumEPKc
    _ZNK5NcVar6valuesEv
    _ZNK5NcVar7attnameEi
    _ZNK5NcVar7get_attEPKc
    _ZNK5NcVar7get_attEi
    _ZNK5NcVar7get_dimEi
    _ZNK5NcVar8is_validEv
    _ZNK5NcVar8num_attsEv
    _ZNK5NcVar8num_dimsEv
    _ZNK5NcVar8num_valsEv
    _ZNK6NcFile10get_formatEv
    _ZNK6NcFile2idEv
    _ZNK6NcFile7get_attEPKc
    _ZNK6NcFile7get_attEi
    _ZNK6NcFile7get_dimEPKc
    _ZNK6NcFile7get_dimEi
    _ZNK6NcFile7get_varEPKc
    _ZNK6NcFile7get_varEi
    _ZNK6NcFile7rec_dimEv
    _ZNK6NcFile8get_fillEv
    _ZNK6NcFile8is_validEv
    _ZNK6NcFile8num_attsEv
    _ZNK6NcFile8num_dimsEv
    _ZNK6NcFile8num_varsEv
    _ZNSsC1IPcEET_S1_RKSaIcE
    _ZNSt15basic_stringbufIcSt11char_traitsIcESaIcEED1Ev
    _ZTI12NcValues_int
    _ZTI13NcValues_char
    _ZTI13NcValues_long
    _ZTI14NcValues_float
    _ZTI14NcValues_short
    _ZTI15NcValues_double
    _ZTI15NcValues_ncbyte
    _ZTI15NcValues_nclong
    _ZTI16NcTypedComponent
    _ZTI5NcAtt
    _ZTI5NcDim
    _ZTI5NcVar
    _ZTI6NcFile
    _ZTI7NcError
    _ZTI8NcValues
    _ZTS12NcValues_int
    _ZTS13NcValues_char
    _ZTS13NcValues_long
    _ZTS14NcValues_float
    _ZTS14NcValues_short
    _ZTS15NcValues_double
    _ZTS15NcValues_ncbyte
    _ZTS15NcValues_nclong
    _ZTS16NcTypedComponent
    _ZTS5NcAtt
    _ZTS5NcDim
    _ZTS5NcVar
    _ZTS6NcFile
    _ZTS7NcError
    _ZTS8NcValues
    _ZTV12NcValues_int
    _ZTV13NcValues_char
    _ZTV13NcValues_long
    _ZTV14NcValues_float
    _ZTV14NcValues_short
    _ZTV15NcValues_double
    _ZTV15NcValues_ncbyte
    _ZTV15NcValues_nclong
    _ZTV16NcTypedComponent
    _ZTV5NcAtt
    _ZTV5NcDim
    _ZTV5NcVar
    _ZTV6NcFile
    _ZTV7NcError
    _ZTV8NcValues
    _ZlsRSoRK8NcValues
